target datalayout = "e-m:e-p270:32:32-p271:32:32-p272:64:64-i64:64-i128:128-f80:128-n8:16:32:64-S128"
target triple = "x86_64-pc-linux-gnu"

%struct._lv_menu_load_page_event_data_t = type { ptr, ptr }

; Function Attrs: nounwind uwtable
define void @lv_menu_set_load_page_event(ptr noundef %0, ptr noundef %1, ptr noundef %2) #0 {
  %4 = alloca ptr, align 8
  %5 = alloca ptr, align 8
  %6 = alloca ptr, align 8
  %7 = alloca i32, align 4
  %8 = alloca i32, align 4
  %9 = alloca ptr, align 8
  %10 = alloca i32, align 4
  %11 = alloca ptr, align 8
  store ptr %0, ptr %4, align 8, !tbaa !3
  store ptr %1, ptr %5, align 8, !tbaa !3
  store ptr %2, ptr %6, align 8, !tbaa !3
  br label %12

12:                                               ; preds = %3
  br label %13

13:                                               ; preds = %12
  %14 = load ptr, ptr %5, align 8, !tbaa !3
  call void @lv_obj_add_flag(ptr noundef %14, i32 noundef 2)
  %15 = load ptr, ptr %5, align 8, !tbaa !3
  call void @lv_obj_remove_flag(ptr noundef %15, i32 noundef 16)
  %16 = load ptr, ptr %5, align 8, !tbaa !3
  call void @lv_obj_add_flag(ptr noundef %16, i32 noundef 1024)
  call void @llvm.lifetime.start.p0(i64 4, ptr %7) #3
  call void @llvm.lifetime.start.p0(i64 4, ptr %8) #3
  %17 = load ptr, ptr %5, align 8, !tbaa !3
  %18 = call i32 @lv_obj_get_event_count(ptr noundef %17)
  store i32 %18, ptr %8, align 4, !tbaa !35
  store i32 0, ptr %7, align 4, !tbaa !35
  br label %19

19:                                               ; preds = %40, %13
  %20 = load i32, ptr %7, align 4, !tbaa !35
  %21 = load i32, ptr %8, align 4, !tbaa !35
  %22 = icmp ult i32 %20, %21
  br i1 %22, label %23, label %43

23:                                               ; preds = %19
  call void @llvm.lifetime.start.p0(i64 8, ptr %9) #3
  %24 = load ptr, ptr %5, align 8, !tbaa !3
  %25 = load i32, ptr %7, align 4, !tbaa !35
  %26 = call ptr @lv_obj_get_event_dsc(ptr noundef %24, i32 noundef %25)
  store ptr %26, ptr %9, align 8, !tbaa !3
  %27 = load ptr, ptr %9, align 8, !tbaa !3
  %28 = call ptr @lv_event_dsc_get_cb(ptr noundef %27)
  %29 = icmp eq ptr %28, @lv_menu_load_page_event_cb
  br i1 %29, label %30, label %36

30:                                               ; preds = %23
  %31 = load ptr, ptr %5, align 8, !tbaa !3
  %32 = call i32 @lv_obj_send_event(ptr noundef %31, i32 noundef 41, ptr noundef null)
  %33 = load ptr, ptr %5, align 8, !tbaa !3
  %34 = load i32, ptr %7, align 4, !tbaa !35
  %35 = call zeroext i1 @lv_obj_remove_event(ptr noundef %33, i32 noundef %34)
  store i32 4, ptr %10, align 4
  br label %37

36:                                               ; preds = %23
  store i32 0, ptr %10, align 4
  br label %37

37:                                               ; preds = %36, %30
  call void @llvm.lifetime.end.p0(i64 8, ptr %9) #3
  %38 = load i32, ptr %10, align 4
  switch i32 %38, label %57 [
    i32 0, label %39
    i32 4, label %43
  ]

39:                                               ; preds = %37
  br label %40

40:                                               ; preds = %39
  %41 = load i32, ptr %7, align 4, !tbaa !35
  %42 = add i32 %41, 1
  store i32 %42, ptr %7, align 4, !tbaa !35
  br label %19, !llvm.loop !36

43:                                               ; preds = %37, %19
  call void @llvm.lifetime.start.p0(i64 8, ptr %11) #3
  %44 = call ptr @lv_malloc(i64 noundef 16)
  store ptr %44, ptr %11, align 8, !tbaa !3
  %45 = load ptr, ptr %4, align 8, !tbaa !3
  %46 = load ptr, ptr %11, align 8, !tbaa !3
  %47 = getelementptr inbounds nuw %struct._lv_menu_load_page_event_data_t, ptr %46, i32 0, i32 0
  store ptr %45, ptr %47, align 8, !tbaa !38
  %48 = load ptr, ptr %6, align 8, !tbaa !3
  %49 = load ptr, ptr %11, align 8, !tbaa !3
  %50 = getelementptr inbounds nuw %struct._lv_menu_load_page_event_data_t, ptr %49, i32 0, i32 1
  store ptr %48, ptr %50, align 8, !tbaa !40
  %51 = load ptr, ptr %5, align 8, !tbaa !3
  %52 = load ptr, ptr %11, align 8, !tbaa !3
  %53 = call ptr @lv_obj_add_event_cb(ptr noundef %51, ptr noundef @lv_menu_load_page_event_cb, i32 noundef 10, ptr noundef %52)
  %54 = load ptr, ptr %5, align 8, !tbaa !3
  %55 = load ptr, ptr %11, align 8, !tbaa !3
  %56 = call ptr @lv_obj_add_event_cb(ptr noundef %54, ptr noundef @lv_menu_obj_delete_event_cb, i32 noundef 41, ptr noundef %55)
  call void @llvm.lifetime.end.p0(i64 8, ptr %11) #3
  call void @llvm.lifetime.end.p0(i64 4, ptr %8) #3
  call void @llvm.lifetime.end.p0(i64 4, ptr %7) #3
  ret void

57:                                               ; preds = %37
  unreachable
}