; Function Attrs: nounwind uwtable
define void @lv_menu_set_load_page_event(ptr noundef %0, ptr noundef %1, ptr noundef %2) local_unnamed_addr #0 {
  tail call void @lv_obj_add_flag(ptr noundef %1, i32 noundef 2) #4
  tail call void @lv_obj_remove_flag(ptr noundef %1, i32 noundef 16) #4
  tail call void @lv_obj_add_flag(ptr noundef %1, i32 noundef 1024) #4
  %4 = tail call i32 @lv_obj_get_event_count(ptr noundef %1) #4
  %.not = icmp eq i32 %4, 0
  br i1 %.not, label %.loopexit, label %.lr.ph

.lr.ph:                                           ; preds = %3, %11
  %.025 = phi i32 [ %12, %11 ], [ 0, %3 ]
  %5 = tail call ptr @lv_obj_get_event_dsc(ptr noundef %1, i32 noundef %.025) #4
  %6 = tail call ptr @lv_event_dsc_get_cb(ptr noundef %5) #4
  %7 = icmp eq ptr %6, @lv_menu_load_page_event_cb
  br i1 %7, label %8, label %11

8:                                                ; preds = %.lr.ph
  %9 = tail call i32 @lv_obj_send_event(ptr noundef %1, i32 noundef 41, ptr noundef null) #4
  %10 = tail call zeroext i1 @lv_obj_remove_event(ptr noundef %1, i32 noundef %.025) #4
  br label %.loopexit

11:                                               ; preds = %.lr.ph
  %12 = add nuw i32 %.025, 1
  %exitcond.not = icmp eq i32 %12, %4
  br i1 %exitcond.not, label %.loopexit, label %.lr.ph, !llvm.loop !34

.loopexit:                                        ; preds = %11, %3, %8
  %13 = tail call ptr @lv_malloc(i64 noundef 16) #4
  store ptr %0, ptr %13, align 8, !tbaa !36
  %14 = getelementptr inbounds nuw i8, ptr %13, i64 8
  store ptr %2, ptr %14, align 8, !tbaa !38
  %15 = tail call ptr @lv_obj_add_event_cb(ptr noundef %1, ptr noundef nonnull @lv_menu_load_page_event_cb, i32 noundef 10, ptr noundef nonnull %13) #4
  %16 = tail call ptr @lv_obj_add_event_cb(ptr noundef %1, ptr noundef nonnull @lv_menu_obj_delete_event_cb, i32 noundef 41, ptr noundef nonnull %13) #4
  ret void
}